; Function Attrs: mustprogress nofree norecurse nosync nounwind willreturn memory(readwrite, inaccessiblemem: none) uwtable
define internal noundef nonnull ptr @get_kwargs(ptr readnone captures(none) %0, ptr readnone captures(none) %1, ptr noundef %2) #2 {
  %4 = icmp eq ptr %2, null
  %spec.store.select = select i1 %4, ptr @_Py_NoneStruct, ptr %2
  %5 = load i32, ptr %spec.store.select, align 8, !tbaa !3
  %6 = icmp slt i32 %5, 0
  br i1 %6, label %_Py_NewRef.exit, label %7

7:                                                ; preds = %3
  %8 = add nuw i32 %5, 1
  store i32 %8, ptr %spec.store.select, align 8, !tbaa !3
  br label %_Py_NewRef.exit

_Py_NewRef.exit:                                  ; preds = %3, %7
  ret ptr %spec.store.select
}